; ModuleID = '55/1656.cpp'
source_filename = "55/1656.cpp"
target datalayout = "e-m:e-p270:32:32-p271:32:32-p272:64:64-i64:64-f80:128-n8:16:32:64-S128"
target triple = "x86_64-pc-linux-gnu"

%"class.std::ios_base::Init" = type { i8 }
%"class.std::basic_ostream" = type { i32 (...)**, %"class.std::basic_ios" }
%"class.std::basic_ios" = type { %"class.std::ios_base", %"class.std::basic_ostream"*, i8, i8, %"class.std::basic_streambuf"*, %"class.std::ctype"*, %"class.std::num_put"*, %"class.std::num_get"* }
%"class.std::ios_base" = type { i32 (...)**, i64, i64, i32, i32, i32, %"struct.std::ios_base::_Callback_list"*, %"struct.std::ios_base::_Words", [8 x %"struct.std::ios_base::_Words"], i32, %"struct.std::ios_base::_Words"*, %"class.std::locale" }
%"struct.std::ios_base::_Callback_list" = type { %"struct.std::ios_base::_Callback_list"*, void (i32, %"class.std::ios_base"*, i32)*, i32, i32 }
%"struct.std::ios_base::_Words" = type { i8*, i64 }
%"class.std::locale" = type { %"class.std::locale::_Impl"* }
%"class.std::locale::_Impl" = type { i32, %"class.std::locale::facet"**, i64, %"class.std::locale::facet"**, i8** }
%"class.std::locale::facet" = type <{ i32 (...)**, i32, [4 x i8] }>
%"class.std::basic_streambuf" = type { i32 (...)**, i8*, i8*, i8*, i8*, i8*, i8*, %"class.std::locale" }
%"class.std::ctype" = type <{ %"class.std::locale::facet.base", [4 x i8], %struct.__locale_struct*, i8, [7 x i8], i32*, i32*, i16*, i8, [256 x i8], [256 x i8], i8, [6 x i8] }>
%"class.std::locale::facet.base" = type <{ i32 (...)**, i32 }>
%struct.__locale_struct = type { [13 x %struct.__locale_data*], i16*, i32*, i32*, [13 x i8*] }
%struct.__locale_data = type opaque
%"class.std::num_put" = type { %"class.std::locale::facet.base", [4 x i8] }
%"class.std::num_get" = type { %"class.std::locale::facet.base", [4 x i8] }

@_ZStL8__ioinit = internal global %"class.std::ios_base::Init" zeroinitializer, align 1
@__dso_handle = external hidden global i8
@__const.main.char1 = private unnamed_addr constant [37 x i8] c"0123456789ABCDEFGHIJKLMNOPQRSTUVWXYZ\00", align 16
@.str = private unnamed_addr constant [7 x i8] c"%d%s%d\00", align 1
@_ZSt4cout = external dso_local global %"class.std::basic_ostream", align 8
@llvm.global_ctors = appending global [1 x { i32, void ()*, i8* }] [{ i32, void ()*, i8* } { i32 65535, void ()* @_GLOBAL__sub_I_1656.cpp, i8* null }]

; Function Attrs: noinline uwtable
define internal void @__cxx_global_var_init() #0 section ".text.startup" {
  call void @_ZNSt8ios_base4InitC1Ev(%"class.std::ios_base::Init"* @_ZStL8__ioinit)
  %1 = call i32 @__cxa_atexit(void (i8*)* bitcast (void (%"class.std::ios_base::Init"*)* @_ZNSt8ios_base4InitD1Ev to void (i8*)*), i8* getelementptr inbounds (%"class.std::ios_base::Init", %"class.std::ios_base::Init"* @_ZStL8__ioinit, i32 0, i32 0), i8* @__dso_handle) #3
  ret void
}

declare dso_local void @_ZNSt8ios_base4InitC1Ev(%"class.std::ios_base::Init"*) unnamed_addr #1

; Function Attrs: nounwind
declare dso_local void @_ZNSt8ios_base4InitD1Ev(%"class.std::ios_base::Init"*) unnamed_addr #2

; Function Attrs: nounwind
declare dso_local i32 @__cxa_atexit(void (i8*)*, i8*, i8*) #3

; Function Attrs: noinline norecurse uwtable
define dso_local i32 @main() #4 {
  %1 = alloca i32, align 4
  %2 = alloca [1000 x i8], align 16
  %3 = alloca [1000 x i8], align 16
  %4 = alloca i32, align 4
  %5 = alloca i64, align 8
  %6 = alloca i32, align 4
  %7 = alloca [1000 x i32], align 16
  %8 = alloca [37 x i8], align 16
  %9 = alloca i32, align 4
  %10 = alloca i32, align 4
  store i32 0, i32* %1, align 4
  %11 = bitcast [1000 x i8]* %3 to i8*
  call void @llvm.memset.p0i8.i64(i8* align 16 %11, i8 0, i64 1000, i1 false)
  %12 = bitcast i8* %11 to <{ i8, [999 x i8] }>*
  %13 = getelementptr inbounds <{ i8, [999 x i8] }>, <{ i8, [999 x i8] }>* %12, i32 0, i32 0
  store i8 48, i8* %13, align 16
  store i64 0, i64* %5, align 8
  %14 = bitcast [1000 x i32]* %7 to i8*
  call void @llvm.memset.p0i8.i64(i8* align 16 %14, i8 0, i64 4000, i1 false)
  %15 = bitcast [37 x i8]* %8 to i8*
  call void @llvm.memcpy.p0i8.p0i8.i64(i8* align 16 %15, i8* align 16 getelementptr inbounds ([37 x i8], [37 x i8]* @__const.main.char1, i32 0, i32 0), i64 37, i1 false)
  store i32 48, i32* %9, align 4
  br label %16

16:                                               ; preds = %25, %0
  %17 = load i32, i32* %9, align 4
  %18 = icmp sle i32 %17, 57
  br i1 %18, label %19, label %28

19:                                               ; preds = %16
  %20 = load i32, i32* %9, align 4
  %21 = sub nsw i32 %20, 48
  %22 = load i32, i32* %9, align 4
  %23 = sext i32 %22 to i64
  %24 = getelementptr inbounds [1000 x i32], [1000 x i32]* %7, i64 0, i64 %23
  store i32 %21, i32* %24, align 4
  br label %25

25:                                               ; preds = %19
  %26 = load i32, i32* %9, align 4
  %27 = add nsw i32 %26, 1
  store i32 %27, i32* %9, align 4
  br label %16

28:                                               ; preds = %16
  store i32 65, i32* %9, align 4
  br label %29

29:                                               ; preds = %39, %28
  %30 = load i32, i32* %9, align 4
  %31 = icmp sle i32 %30, 90
  br i1 %31, label %32, label %42

32:                                               ; preds = %29
  %33 = load i32, i32* %9, align 4
  %34 = sub nsw i32 %33, 65
  %35 = add nsw i32 %34, 10
  %36 = load i32, i32* %9, align 4
  %37 = sext i32 %36 to i64
  %38 = getelementptr inbounds [1000 x i32], [1000 x i32]* %7, i64 0, i64 %37
  store i32 %35, i32* %38, align 4
  br label %39

39:                                               ; preds = %32
  %40 = load i32, i32* %9, align 4
  %41 = add nsw i32 %40, 1
  store i32 %41, i32* %9, align 4
  br label %29

42:                                               ; preds = %29
  store i32 97, i32* %9, align 4
  br label %43

43:                                               ; preds = %53, %42
  %44 = load i32, i32* %9, align 4
  %45 = icmp sle i32 %44, 122
  br i1 %45, label %46, label %56

46:                                               ; preds = %43
  %47 = load i32, i32* %9, align 4
  %48 = sub nsw i32 %47, 97
  %49 = add nsw i32 %48, 10
  %50 = load i32, i32* %9, align 4
  %51 = sext i32 %50 to i64
  %52 = getelementptr inbounds [1000 x i32], [1000 x i32]* %7, i64 0, i64 %51
  store i32 %49, i32* %52, align 4
  br label %53

53:                                               ; preds = %46
  %54 = load i32, i32* %9, align 4
  %55 = add nsw i32 %54, 1
  store i32 %55, i32* %9, align 4
  br label %43

56:                                               ; preds = %43
  %57 = getelementptr inbounds [1000 x i8], [1000 x i8]* %2, i64 0, i64 0
  %58 = call i32 (i8*, ...) @__isoc99_scanf(i8* getelementptr inbounds ([7 x i8], [7 x i8]* @.str, i64 0, i64 0), i32* %4, i8* %57, i32* %6)
  store i32 0, i32* %9, align 4
  br label %59

59:                                               ; preds = %80, %56
  %60 = load i32, i32* %9, align 4
  %61 = sext i32 %60 to i64
  %62 = getelementptr inbounds [1000 x i8], [1000 x i8]* %2, i64 0, i64 %61
  %63 = load i8, i8* %62, align 1
  %64 = sext i8 %63 to i32
  %65 = icmp ne i32 %64, 0
  br i1 %65, label %66, label %83

66:                                               ; preds = %59
  %67 = load i64, i64* %5, align 8
  %68 = load i32, i32* %4, align 4
  %69 = sext i32 %68 to i64
  %70 = mul nsw i64 %67, %69
  %71 = load i32, i32* %9, align 4
  %72 = sext i32 %71 to i64
  %73 = getelementptr inbounds [1000 x i8], [1000 x i8]* %2, i64 0, i64 %72
  %74 = load i8, i8* %73, align 1
  %75 = sext i8 %74 to i64
  %76 = getelementptr inbounds [1000 x i32], [1000 x i32]* %7, i64 0, i64 %75
  %77 = load i32, i32* %76, align 4
  %78 = sext i32 %77 to i64
  %79 = add nsw i64 %70, %78
  store i64 %79, i64* %5, align 8
  br label %80

80:                                               ; preds = %66
  %81 = load i32, i32* %9, align 4
  %82 = add nsw i32 %81, 1
  store i32 %82, i32* %9, align 4
  br label %59

83:                                               ; preds = %59
  store i32 0, i32* %10, align 4
  %84 = load i64, i64* %5, align 8
  %85 = icmp eq i64 %84, 0
  %86 = zext i1 %85 to i64
  %87 = select i1 %85, i32 1, i32 0
  store i32 %87, i32* %10, align 4
  br label %88

88:                                               ; preds = %91, %83
  %89 = load i64, i64* %5, align 8
  %90 = icmp sgt i64 %89, 0
  br i1 %90, label %91, label %107

91:                                               ; preds = %88
  %92 = load i64, i64* %5, align 8
  %93 = load i32, i32* %6, align 4
  %94 = sext i32 %93 to i64
  %95 = srem i64 %92, %94
  %96 = getelementptr inbounds [37 x i8], [37 x i8]* %8, i64 0, i64 %95
  %97 = load i8, i8* %96, align 1
  %98 = load i32, i32* %10, align 4
  %99 = sext i32 %98 to i64
  %100 = getelementptr inbounds [1000 x i8], [1000 x i8]* %3, i64 0, i64 %99
  store i8 %97, i8* %100, align 1
  %101 = load i64, i64* %5, align 8
  %102 = load i32, i32* %6, align 4
  %103 = sext i32 %102 to i64
  %104 = sdiv i64 %101, %103
  store i64 %104, i64* %5, align 8
  %105 = load i32, i32* %10, align 4
  %106 = add nsw i32 %105, 1
  store i32 %106, i32* %10, align 4
  br label %88

107:                                              ; preds = %88
  %108 = load i32, i32* %10, align 4
  %109 = sub nsw i32 %108, 1
  store i32 %109, i32* %9, align 4
  br label %110

110:                                              ; preds = %119, %107
  %111 = load i32, i32* %9, align 4
  %112 = icmp sge i32 %111, 0
  br i1 %112, label %113, label %122

113:                                              ; preds = %110
  %114 = load i32, i32* %9, align 4
  %115 = sext i32 %114 to i64
  %116 = getelementptr inbounds [1000 x i8], [1000 x i8]* %3, i64 0, i64 %115
  %117 = load i8, i8* %116, align 1
  %118 = call dereferenceable(272) %"class.std::basic_ostream"* @_ZStlsISt11char_traitsIcEERSt13basic_ostreamIcT_ES5_c(%"class.std::basic_ostream"* dereferenceable(272) @_ZSt4cout, i8 signext %117)
  br label %119

119:                                              ; preds = %113
  %120 = load i32, i32* %9, align 4
  %121 = add nsw i32 %120, -1
  store i32 %121, i32* %9, align 4
  br label %110

122:                                              ; preds = %110
  ret i32 0
}

; Function Attrs: argmemonly nounwind willreturn
declare void @llvm.memset.p0i8.i64(i8* nocapture writeonly, i8, i64, i1 immarg) #5

; Function Attrs: argmemonly nounwind willreturn
declare void @llvm.memcpy.p0i8.p0i8.i64(i8* noalias nocapture writeonly, i8* noalias nocapture readonly, i64, i1 immarg) #5

declare dso_local i32 @__isoc99_scanf(i8*, ...) #1

declare dso_local dereferenceable(272) %"class.std::basic_ostream"* @_ZStlsISt11char_traitsIcEERSt13basic_ostreamIcT_ES5_c(%"class.std::basic_ostream"* dereferenceable(272), i8 signext) #1

; Function Attrs: noinline uwtable
define internal void @_GLOBAL__sub_I_1656.cpp() #0 section ".text.startup" {
  call void @__cxx_global_var_init()
  ret void
}


!llvm.module.flags = !{!0}
!llvm.ident = !{!1}

!0 = !{i32 1, !"wchar_size", i32 4}
!1 = !{!"clang version 10.0.0-4ubuntu1 "}
